(dp0
S'gUCPEM'
p1
(dp2
S'status'
p3
S'stop'
p4
sS'description'
p5
Vmore rooms
p6
sS'name'
p7
Vchris more
p8
sS'location'
p9
I0
sS'hash_id'
p10
g1
sS'songs'
p11
(lp12
ssS'kA8Wc8'
p13
(dp14
S'status'
p15
S'stop'
p16
sS'description'
p17
Vasdjlfjas askjdfl asdf s
p18
sS'name'
p19
Vbrandon
p20
sS'location'
p21
I0
sS'songs'
p22
(lp23
sS'hash_id'
p24
g13
ssS'GYbH7h'
p25
(dp26
S'status'
p27
S'stop'
p28
sS'description'
p29
VLet's try a real party description!
p30
sS'name'
p31
VBrandon
p32
sS'location'
p33
I0
sS'songs'
p34
(lp35
sS'hash_id'
p36
g25
ssS'_6wi_V'
p37
(dp38
S'status'
p39
S'stop'
p40
sS'description'
p41
VMOre esting
p42
sS'name'
p43
VBrandon
p44
sS'location'
p45
I0
sS'songs'
p46
(lp47
sS'hash_id'
p48
g37
ssS'cg3Rr0'
p49
(dp50
S'status'
p51
S'stop'
p52
sS'description'
p53
VMo' rooms
p54
sS'name'
p55
VRoom2
p56
sS'location'
p57
I0
sS'songs'
p58
(lp59
sS'hash_id'
p60
g49
ssS'ksfn4r'
p61
(dp62
S'status'
p63
S'stop'
p64
sS'description'
p65
VMore rooms
p66
sS'name'
p67
VChris
p68
sS'location'
p69
I0
sS'songs'
p70
(lp71
sS'hash_id'
p72
g61
ssS'q1cd00'
p73
(dp74
S'status'
p75
S'stop'
p76
sS'description'
p77
VMo f'in descriptions
p78
sS'name'
p79
VRoom3
p80
sS'location'
p81
I0
sS'songs'
p82
(lp83
sS'hash_id'
p84
g73
ss.